Certificate:
    Data:
        Version: 3 (0x2)
        Serial Number:
            a7:33:d2:f7:13:dd:83:90:57:1d:1d:4a:0e:3f:3c:8d
        Signature Algorithm: sha256WithRSAEncryption
        Issuer: CN=neffetsVPN
        Validity
            Not Before: May  6 19:59:51 2024 GMT
            Not After : Aug  9 19:59:51 2026 GMT
        Subject: CN=neffets_test
        Subject Public Key Info:
            Public Key Algorithm: rsaEncryption
                Public-Key: (2048 bit)
                Modulus:
                    00:b3:ab:34:df:cd:1c:65:19:93:2d:50:91:c6:22:
                    7a:98:7a:1f:c6:ad:7a:70:80:a7:9b:14:02:9d:0f:
                    c9:39:6f:71:c0:a6:06:84:f0:95:31:30:b4:f4:6a:
                    93:79:c4:4c:b7:ba:f4:ee:aa:3b:79:82:e1:b1:37:
                    43:9b:ab:f1:21:4d:6f:05:a1:68:6f:3a:e4:b5:d0:
                    c0:1f:24:55:7b:fe:1f:97:0b:16:5e:bc:bb:7e:11:
                    fc:1e:45:b6:0e:be:76:e5:36:80:f0:c3:fc:3e:98:
                    5f:f5:c5:ee:de:81:fa:56:4c:5d:6c:cc:2e:89:c1:
                    74:55:73:63:ab:85:95:63:6e:1e:88:cd:94:ab:c2:
                    ed:aa:ec:5c:a9:75:6a:3a:34:68:11:c2:50:1d:a2:
                    0c:c2:b8:0b:ae:3d:01:40:ad:2b:b0:5a:cd:74:cc:
                    20:5e:93:67:9e:1c:6b:2b:71:29:15:22:53:6c:df:
                    e9:25:46:0d:bc:a9:90:65:14:0d:87:a3:ea:a4:74:
                    5e:9a:17:64:30:41:25:4e:a9:43:95:de:be:3d:73:
                    41:84:8c:a0:f2:21:2e:e7:db:56:a0:58:99:12:89:
                    af:a7:6a:e7:f2:3f:58:ac:17:bf:93:af:b9:67:ec:
                    db:7f:e1:93:53:2f:0c:28:aa:c8:6a:92:4b:34:96:
                    a1:81
                Exponent: 65537 (0x10001)
        X509v3 extensions:
            X509v3 Basic Constraints: 
                CA:FALSE
            X509v3 Subject Key Identifier: 
                E2:0D:71:95:E1:E3:59:81:C1:DD:32:F2:37:8E:41:3A:D9:68:FE:67
            X509v3 Authority Key Identifier: 
                keyid:60:E6:43:32:B1:C5:F2:05:33:5C:94:DA:C3:C2:3C:DD:E5:96:C5:B7
                DirName:/CN=neffetsVPN
                serial:67:11:AE:FE:FC:4D:12:13:4B:3B:3B:F0:8E:C4:B5:58:B0:F8:AD:4A
            X509v3 Extended Key Usage: 
                TLS Web Client Authentication
            X509v3 Key Usage: 
                Digital Signature
    Signature Algorithm: sha256WithRSAEncryption
    Signature Value:
        70:d8:15:c8:6f:21:6c:d6:eb:7d:27:6a:47:7f:28:c6:a6:bc:
        0c:34:63:ea:93:c7:43:68:08:b2:56:fa:4a:54:cd:b0:9d:5b:
        6b:30:e4:be:04:f4:0b:bd:c9:a6:c8:2d:68:6b:45:cb:6c:0a:
        cd:60:8d:61:51:39:91:c4:7c:ad:db:f9:69:b9:e0:2a:bd:fd:
        a2:d0:4d:51:6c:ad:fb:dd:2d:bd:bb:fb:56:0f:05:66:cb:bd:
        ba:18:70:18:5d:0e:db:36:aa:5d:d1:19:a2:b8:c3:eb:71:a1:
        83:95:ab:67:6c:e6:1f:98:bb:9e:40:bf:31:e0:0c:83:fc:10:
        a2:8c:2c:4a:af:60:23:fb:4b:ed:36:cb:6a:de:ba:8a:26:b4:
        9b:23:6a:ee:49:cf:0b:cd:08:c2:77:2d:e0:26:3b:a0:03:71:
        77:74:74:6f:1f:17:52:f4:8c:50:f4:a3:6d:2e:78:bd:df:81:
        e4:c8:13:bd:71:62:bc:be:e8:e2:3e:ff:7e:51:a5:88:82:18:
        ca:43:28:5c:12:62:f2:d4:b8:d3:0b:fa:4a:35:ae:42:d6:34:
        0c:9d:2f:9f:08:4c:23:f0:72:64:91:1b:35:96:54:32:f8:c0:
        6f:8f:c4:3f:c7:dd:54:f3:fe:0f:3d:9f:4b:26:c3:09:44:0d:
        b6:2d:4f:dd
-----BEGIN CERTIFICATE-----
MIIDWTCCAkGgAwIBAgIRAKcz0vcT3YOQVx0dSg4/PI0wDQYJKoZIhvcNAQELBQAw
FTETMBEGA1UEAwwKbmVmZmV0c1ZQTjAeFw0yNDA1MDYxOTU5NTFaFw0yNjA4MDkx
OTU5NTFaMBcxFTATBgNVBAMMDG5lZmZldHNfdGVzdDCCASIwDQYJKoZIhvcNAQEB
BQADggEPADCCAQoCggEBALOrNN/NHGUZky1QkcYieph6H8atenCAp5sUAp0PyTlv
ccCmBoTwlTEwtPRqk3nETLe69O6qO3mC4bE3Q5ur8SFNbwWhaG865LXQwB8kVXv+
H5cLFl68u34R/B5Ftg6+duU2gPDD/D6YX/XF7t6B+lZMXWzMLonBdFVzY6uFlWNu
HojNlKvC7arsXKl1ajo0aBHCUB2iDMK4C649AUCtK7BazXTMIF6TZ54caytxKRUi
U2zf6SVGDbypkGUUDYej6qR0XpoXZDBBJU6pQ5Xevj1zQYSMoPIhLufbVqBYmRKJ
r6dq5/I/WKwXv5OvuWfs23/hk1MvDCiqyGqSSzSWoYECAwEAAaOBoTCBnjAJBgNV
HRMEAjAAMB0GA1UdDgQWBBTiDXGV4eNZgcHdMvI3jkE62Wj+ZzBQBgNVHSMESTBH
gBRg5kMyscXyBTNclNrDwjzd5ZbFt6EZpBcwFTETMBEGA1UEAwwKbmVmZmV0c1ZQ
ToIUZxGu/vxNEhNLOzvwjsS1WLD4rUowEwYDVR0lBAwwCgYIKwYBBQUHAwIwCwYD
VR0PBAQDAgeAMA0GCSqGSIb3DQEBCwUAA4IBAQBw2BXIbyFs1ut9J2pHfyjGprwM
NGPqk8dDaAiyVvpKVM2wnVtrMOS+BPQLvcmmyC1oa0XLbArNYI1hUTmRxHyt2/lp
ueAqvf2i0E1RbK373S29u/tWDwVmy726GHAYXQ7bNqpd0RmiuMPrcaGDlatnbOYf
mLueQL8x4AyD/BCijCxKr2Aj+0vtNstq3rqKJrSbI2ruSc8LzQjCdy3gJjugA3F3
dHRvHxdS9IxQ9KNtLni934HkyBO9cWK8vujiPv9+UaWIghjKQyhcEmLy1LjTC/pK
Na5C1jQMnS+fCEwj8HJkkRs1llQy+MBvj8Q/x91U8/4PPZ9LJsMJRA22LU/d
-----END CERTIFICATE-----
